target datalayout = "e-m:e-p270:32:32-p271:32:32-p272:64:64-i64:64-i128:128-f80:128-n8:16:32:64-S128"
target triple = "x86_64-pc-linux-gnu"

%"class.std::ios_base" = type { ptr, i64, i64, i32, i32, i32, ptr, %"struct.std::ios_base::_Words", [8 x %"struct.std::ios_base::_Words"], i32, ptr, %"class.std::locale" }
%"struct.std::ios_base::_Words" = type { ptr, i64 }
%"class.std::locale" = type { ptr }

@_ZZN32pxrInternal_v0_24__pxrReserved__L25Pcp_IdentifierFormatIndexEvE5index = internal global i64 0, align 8
@_ZGVZN32pxrInternal_v0_24__pxrReserved__L25Pcp_IdentifierFormatIndexEvE5index = internal global i64 0, align 8

; Function Attrs: mustprogress uwtable
define linkonce_odr noundef nonnull align 8 dereferenceable(8) ptr @_ZNSt8ios_base5iwordEi(ptr noundef nonnull align 8 dereferenceable(216) %0, i32 noundef %1) #0 comdat align 2 {
  %3 = alloca ptr, align 8
  %4 = alloca i32, align 4
  %5 = alloca ptr, align 8
  store ptr %0, ptr %3, align 8
  store i32 %1, ptr %4, align 4
  %6 = load ptr, ptr %3, align 8
  %7 = load i32, ptr %4, align 4
  %8 = getelementptr inbounds nuw %"class.std::ios_base", ptr %6, i32 0, i32 9
  %9 = load i32, ptr %8, align 8
  %10 = icmp ult i32 %7, %9
  br i1 %10, label %11, label %17

11:                                               ; preds = %2
  %12 = getelementptr inbounds nuw %"class.std::ios_base", ptr %6, i32 0, i32 10
  %13 = load ptr, ptr %12, align 8
  %14 = load i32, ptr %4, align 4
  %15 = sext i32 %14 to i64
  %16 = getelementptr inbounds %"struct.std::ios_base::_Words", ptr %13, i64 %15
  br label %20

17:                                               ; preds = %2
  %18 = load i32, ptr %4, align 4
  %19 = call noundef nonnull align 8 dereferenceable(16) ptr @_ZNSt8ios_base13_M_grow_wordsEib(ptr noundef nonnull align 8 dereferenceable(216) %6, i32 noundef %18, i1 noundef zeroext true)
  br label %20

20:                                               ; preds = %17, %11
  %21 = phi ptr [ %16, %11 ], [ %19, %17 ]
  store ptr %21, ptr %5, align 8
  %22 = load ptr, ptr %5, align 8
  %23 = getelementptr inbounds nuw %"struct.std::ios_base::_Words", ptr %22, i32 0, i32 1
  ret ptr %23
}

; Function Attrs: mustprogress nounwind uwtable
define internal noundef i64 @_ZN32pxrInternal_v0_24__pxrReserved__L25Pcp_IdentifierFormatIndexEv() #1 {
  %1 = load atomic i8, ptr @_ZGVZN32pxrInternal_v0_24__pxrReserved__L25Pcp_IdentifierFormatIndexEvE5index acquire, align 8
  %2 = icmp eq i8 %1, 0
  br i1 %2, label %3, label %9, !prof !4

3:                                                ; preds = %0
  %4 = call i32 @__cxa_guard_acquire(ptr @_ZGVZN32pxrInternal_v0_24__pxrReserved__L25Pcp_IdentifierFormatIndexEvE5index) #10
  %5 = icmp ne i32 %4, 0
  br i1 %5, label %6, label %9

6:                                                ; preds = %3
  %7 = call noundef i32 @_ZNSt8ios_base6xallocEv() #10
  %8 = sext i32 %7 to i64
  store i64 %8, ptr @_ZZN32pxrInternal_v0_24__pxrReserved__L25Pcp_IdentifierFormatIndexEvE5index, align 8
  call void @__cxa_guard_release(ptr @_ZGVZN32pxrInternal_v0_24__pxrReserved__L25Pcp_IdentifierFormatIndexEvE5index) #10
  br label %9

9:                                                ; preds = %6, %3, %0
  %10 = load i64, ptr @_ZZN32pxrInternal_v0_24__pxrReserved__L25Pcp_IdentifierFormatIndexEvE5index, align 8
  ret i64 %10
}

; Function Attrs: mustprogress uwtable
define noundef nonnull align 8 dereferenceable(8) ptr @_ZN32pxrInternal_v0_24__pxrReserved__27PcpIdentifierFormatBaseNameERSo(ptr noundef nonnull align 8 dereferenceable(8) %0) #0 {
  %2 = alloca ptr, align 8
  store ptr %0, ptr %2, align 8
  %3 = load ptr, ptr %2, align 8
  %4 = load ptr, ptr %3, align 8
  %5 = getelementptr i8, ptr %4, i64 -24
  %6 = load i64, ptr %5, align 8
  %7 = getelementptr inbounds i8, ptr %3, i64 %6
  %8 = call noundef i64 @_ZN32pxrInternal_v0_24__pxrReserved__L25Pcp_IdentifierFormatIndexEv()
  %9 = trunc i64 %8 to i32
  %10 = call noundef nonnull align 8 dereferenceable(8) ptr @_ZNSt8ios_base5iwordEi(ptr noundef nonnull align 8 dereferenceable(216) %7, i32 noundef %9)
  store i64 2, ptr %10, align 8
  %11 = load ptr, ptr %2, align 8
  ret ptr %11
}